; Function Attrs: nounwind uwtable
define ptr @l_Lean_ScopedEnvExtension_addCore___rarg(ptr noundef %0, ptr noundef %1, ptr noundef %2, i8 noundef zeroext %3, ptr noundef %4) local_unnamed_addr #2 {
  switch i8 %3, label %47 [
    i8 0, label %6
    i8 1, label %17
  ]

6:                                                ; preds = %5
  %7 = ptrtoint ptr %4 to i64
  %8 = and i64 %7, 1
  %.not20 = icmp eq i64 %8, 0
  br i1 %.not20, label %9, label %lean_dec.exit16

9:                                                ; preds = %6
  %10 = load i32, ptr %4, align 4, !tbaa !4
  %11 = icmp sgt i32 %10, 1
  br i1 %11, label %12, label %14, !prof !11

12:                                               ; preds = %9
  %13 = add nsw i32 %10, -1
  store i32 %13, ptr %4, align 4, !tbaa !4
  br label %lean_dec.exit16

14:                                               ; preds = %9
  %.not.i = icmp eq i32 %10, 0
  br i1 %.not.i, label %lean_dec.exit16, label %15

15:                                               ; preds = %14
  tail call void @lean_dec_ref_cold(ptr noundef nonnull %4) #7
  br label %lean_dec.exit16

lean_dec.exit16:                                  ; preds = %15, %14, %12, %6
  %16 = tail call ptr @l_Lean_ScopedEnvExtension_addEntry___rarg(ptr noundef %1, ptr noundef %0, ptr noundef %2)
  br label %49

17:                                               ; preds = %5
  %18 = ptrtoint ptr %4 to i64
  %19 = and i64 %18, 1
  %.not = icmp eq i64 %19, 0
  br i1 %.not, label %20, label %lean_dec.exit

20:                                               ; preds = %17
  %21 = load i32, ptr %4, align 4, !tbaa !4
  %22 = icmp sgt i32 %21, 1
  br i1 %22, label %23, label %25, !prof !11

23:                                               ; preds = %20
  %24 = add nsw i32 %21, -1
  store i32 %24, ptr %4, align 4, !tbaa !4
  br label %lean_dec.exit

25:                                               ; preds = %20
  %.not.i17 = icmp eq i32 %21, 0
  br i1 %.not.i17, label %lean_dec.exit, label %26

26:                                               ; preds = %25
  tail call void @lean_dec_ref_cold(ptr noundef nonnull %4) #7
  br label %lean_dec.exit

lean_dec.exit:                                    ; preds = %26, %25, %23, %17
  %27 = getelementptr inbounds nuw i8, ptr %1, i64 16
  %28 = load ptr, ptr %27, align 8, !tbaa !9
  %29 = ptrtoint ptr %28 to i64
  %30 = and i64 %29, 1
  %.not.i19 = icmp eq i64 %30, 0
  br i1 %.not.i19, label %31, label %lean_inc.exit.i

31:                                               ; preds = %lean_dec.exit
  %.val.i.i = load i32, ptr %28, align 4, !tbaa !4
  %32 = icmp sgt i32 %.val.i.i, 0
  br i1 %32, label %33, label %35, !prof !11

33:                                               ; preds = %31
  %34 = add nuw i32 %.val.i.i, 1
  store i32 %34, ptr %28, align 4, !tbaa !4
  br label %lean_inc.exit.i

35:                                               ; preds = %31
  %.not.i.i = icmp eq i32 %.val.i.i, 0
  br i1 %.not.i.i, label %lean_inc.exit.i, label %36

36:                                               ; preds = %35
  tail call void @lean_inc_ref_cold(ptr noundef nonnull %28) #7
  br label %lean_inc.exit.i

lean_inc.exit.i:                                  ; preds = %36, %35, %33, %lean_dec.exit
  tail call void @lean_inc_heartbeat() #7
  %37 = tail call noalias ptr @mi_malloc_small(i64 noundef 40) #7
  %38 = icmp eq ptr %37, null
  br i1 %38, label %39, label %l_Lean_ScopedEnvExtension_addLocalEntry___rarg.exit

39:                                               ; preds = %lean_inc.exit.i
  tail call void @lean_internal_panic_out_of_memory() #8
  unreachable

l_Lean_ScopedEnvExtension_addLocalEntry___rarg.exit: ; preds = %lean_inc.exit.i
  %40 = getelementptr inbounds nuw i8, ptr %37, i64 4
  store i32 1, ptr %37, align 4, !tbaa !4
  store i32 -184549336, ptr %40, align 4
  %41 = getelementptr inbounds nuw i8, ptr %37, i64 8
  store ptr @l_Lean_ScopedEnvExtension_addLocalEntry___rarg___lambda__1, ptr %41, align 8, !tbaa !9
  %42 = getelementptr inbounds nuw i8, ptr %37, i64 16
  store i16 3, ptr %42, align 8, !tbaa !14
  %43 = getelementptr inbounds nuw i8, ptr %37, i64 18
  store i16 2, ptr %43, align 2, !tbaa !14
  %44 = getelementptr inbounds nuw i8, ptr %37, i64 24
  store ptr %1, ptr %44, align 8, !tbaa !9
  %45 = getelementptr inbounds nuw i8, ptr %37, i64 32
  store ptr %2, ptr %45, align 8, !tbaa !9
  %46 = tail call ptr @l_Lean_PersistentEnvExtension_modifyState___rarg(ptr noundef %28, ptr noundef %0, ptr noundef nonnull %37, i8 noundef zeroext 1) #7
  br label %49

47:                                               ; preds = %5
  %48 = tail call ptr @l_Lean_ScopedEnvExtension_addScopedEntry___rarg(ptr noundef %1, ptr noundef %0, ptr noundef %4, ptr noundef %2)
  br label %49

49:                                               ; preds = %47, %l_Lean_ScopedEnvExtension_addLocalEntry___rarg.exit, %lean_dec.exit16
  %.0 = phi ptr [ %48, %47 ], [ %46, %l_Lean_ScopedEnvExtension_addLocalEntry___rarg.exit ], [ %16, %lean_dec.exit16 ]
  ret ptr %.0
}